; Function Attrs: nounwind uwtable
define dso_local zeroext i16 @replorigin_by_name(ptr noundef %0, i1 noundef zeroext %1) local_unnamed_addr #0 {
  %3 = tail call ptr @cstring_to_text(ptr noundef %0) #10
  %4 = ptrtoint ptr %3 to i64
  %5 = tail call ptr @SearchSysCache1(i32 noundef 59, i64 noundef %4) #10
  %.not = icmp eq ptr %5, null
  br i1 %.not, label %14, label %6

6:                                                ; preds = %2
  %7 = getelementptr i8, ptr %5, i64 16
  %.val = load ptr, ptr %7, align 8
  %8 = getelementptr inbounds nuw i8, ptr %.val, i64 22
  %9 = load i8, ptr %8, align 2
  %10 = zext i8 %9 to i64
  %11 = getelementptr inbounds nuw i8, ptr %.val, i64 %10
  %12 = load i32, ptr %11, align 4
  tail call void @ReleaseSysCache(ptr noundef nonnull %5) #10
  %13 = trunc i32 %12 to i16
  br label %19

14:                                               ; preds = %2
  br i1 %1, label %19, label %15

15:                                               ; preds = %14
  %16 = tail call zeroext i1 @errstart_cold(i32 noundef 21, ptr noundef null) #11
  tail call void @llvm.assume(i1 %16)
  %17 = tail call i32 @errcode(i32 noundef 67137668) #10
  %18 = tail call i32 (ptr, ...) @errmsg(ptr noundef nonnull @.str, ptr noundef %0) #10
  tail call void @errfinish(ptr noundef nonnull @.str.1, i32 noundef 245, ptr noundef nonnull @__func__.replorigin_by_name) #10
  unreachable

19:                                               ; preds = %14, %6
  %.0 = phi i16 [ %13, %6 ], [ 0, %14 ]
  ret i16 %.0
}